target datalayout = "e-m:e-p270:32:32-p271:32:32-p272:64:64-i64:64-i128:128-f80:128-n8:16:32:64-S128"
target triple = "x86_64-pc-linux-gnu"

%struct.CreateStmt = type { i32, ptr, ptr, ptr, ptr, ptr, ptr, ptr, ptr, ptr, i32, ptr, ptr, i8 }

; Function Attrs: nounwind uwtable
define internal zeroext i1 @_equalCreateStmt(ptr noundef %0, ptr noundef %1) #0 {
  %3 = alloca i1, align 1
  %4 = alloca ptr, align 8
  %5 = alloca ptr, align 8
  store ptr %0, ptr %4, align 8
  store ptr %1, ptr %5, align 8
  br label %6

6:                                                ; preds = %2
  %7 = load ptr, ptr %4, align 8
  %8 = getelementptr inbounds nuw %struct.CreateStmt, ptr %7, i32 0, i32 1
  %9 = load ptr, ptr %8, align 8
  %10 = load ptr, ptr %5, align 8
  %11 = getelementptr inbounds nuw %struct.CreateStmt, ptr %10, i32 0, i32 1
  %12 = load ptr, ptr %11, align 8
  %13 = call zeroext i1 @equal(ptr noundef %9, ptr noundef %12)
  br i1 %13, label %15, label %14

14:                                               ; preds = %6
  store i1 false, ptr %3, align 1
  br label %191

15:                                               ; preds = %6
  br label %16

16:                                               ; preds = %15
  br label %17

17:                                               ; preds = %16
  %18 = load ptr, ptr %4, align 8
  %19 = getelementptr inbounds nuw %struct.CreateStmt, ptr %18, i32 0, i32 2
  %20 = load ptr, ptr %19, align 8
  %21 = load ptr, ptr %5, align 8
  %22 = getelementptr inbounds nuw %struct.CreateStmt, ptr %21, i32 0, i32 2
  %23 = load ptr, ptr %22, align 8
  %24 = call zeroext i1 @equal(ptr noundef %20, ptr noundef %23)
  br i1 %24, label %26, label %25

25:                                               ; preds = %17
  store i1 false, ptr %3, align 1
  br label %191

26:                                               ; preds = %17
  br label %27

27:                                               ; preds = %26
  br label %28

28:                                               ; preds = %27
  %29 = load ptr, ptr %4, align 8
  %30 = getelementptr inbounds nuw %struct.CreateStmt, ptr %29, i32 0, i32 3
  %31 = load ptr, ptr %30, align 8
  %32 = load ptr, ptr %5, align 8
  %33 = getelementptr inbounds nuw %struct.CreateStmt, ptr %32, i32 0, i32 3
  %34 = load ptr, ptr %33, align 8
  %35 = call zeroext i1 @equal(ptr noundef %31, ptr noundef %34)
  br i1 %35, label %37, label %36

36:                                               ; preds = %28
  store i1 false, ptr %3, align 1
  br label %191

37:                                               ; preds = %28
  br label %38

38:                                               ; preds = %37
  br label %39

39:                                               ; preds = %38
  %40 = load ptr, ptr %4, align 8
  %41 = getelementptr inbounds nuw %struct.CreateStmt, ptr %40, i32 0, i32 4
  %42 = load ptr, ptr %41, align 8
  %43 = load ptr, ptr %5, align 8
  %44 = getelementptr inbounds nuw %struct.CreateStmt, ptr %43, i32 0, i32 4
  %45 = load ptr, ptr %44, align 8
  %46 = call zeroext i1 @equal(ptr noundef %42, ptr noundef %45)
  br i1 %46, label %48, label %47

47:                                               ; preds = %39
  store i1 false, ptr %3, align 1
  br label %191

48:                                               ; preds = %39
  br label %49

49:                                               ; preds = %48
  br label %50

50:                                               ; preds = %49
  %51 = load ptr, ptr %4, align 8
  %52 = getelementptr inbounds nuw %struct.CreateStmt, ptr %51, i32 0, i32 5
  %53 = load ptr, ptr %52, align 8
  %54 = load ptr, ptr %5, align 8
  %55 = getelementptr inbounds nuw %struct.CreateStmt, ptr %54, i32 0, i32 5
  %56 = load ptr, ptr %55, align 8
  %57 = call zeroext i1 @equal(ptr noundef %53, ptr noundef %56)
  br i1 %57, label %59, label %58

58:                                               ; preds = %50
  store i1 false, ptr %3, align 1
  br label %191

59:                                               ; preds = %50
  br label %60

60:                                               ; preds = %59
  br label %61

61:                                               ; preds = %60
  %62 = load ptr, ptr %4, align 8
  %63 = getelementptr inbounds nuw %struct.CreateStmt, ptr %62, i32 0, i32 6
  %64 = load ptr, ptr %63, align 8
  %65 = load ptr, ptr %5, align 8
  %66 = getelementptr inbounds nuw %struct.CreateStmt, ptr %65, i32 0, i32 6
  %67 = load ptr, ptr %66, align 8
  %68 = call zeroext i1 @equal(ptr noundef %64, ptr noundef %67)
  br i1 %68, label %70, label %69

69:                                               ; preds = %61
  store i1 false, ptr %3, align 1
  br label %191

70:                                               ; preds = %61
  br label %71

71:                                               ; preds = %70
  br label %72

72:                                               ; preds = %71
  %73 = load ptr, ptr %4, align 8
  %74 = getelementptr inbounds nuw %struct.CreateStmt, ptr %73, i32 0, i32 7
  %75 = load ptr, ptr %74, align 8
  %76 = load ptr, ptr %5, align 8
  %77 = getelementptr inbounds nuw %struct.CreateStmt, ptr %76, i32 0, i32 7
  %78 = load ptr, ptr %77, align 8
  %79 = call zeroext i1 @equal(ptr noundef %75, ptr noundef %78)
  br i1 %79, label %81, label %80

80:                                               ; preds = %72
  store i1 false, ptr %3, align 1
  br label %191

81:                                               ; preds = %72
  br label %82

82:                                               ; preds = %81
  br label %83

83:                                               ; preds = %82
  %84 = load ptr, ptr %4, align 8
  %85 = getelementptr inbounds nuw %struct.CreateStmt, ptr %84, i32 0, i32 8
  %86 = load ptr, ptr %85, align 8
  %87 = load ptr, ptr %5, align 8
  %88 = getelementptr inbounds nuw %struct.CreateStmt, ptr %87, i32 0, i32 8
  %89 = load ptr, ptr %88, align 8
  %90 = call zeroext i1 @equal(ptr noundef %86, ptr noundef %89)
  br i1 %90, label %92, label %91

91:                                               ; preds = %83
  store i1 false, ptr %3, align 1
  br label %191

92:                                               ; preds = %83
  br label %93

93:                                               ; preds = %92
  br label %94

94:                                               ; preds = %93
  %95 = load ptr, ptr %4, align 8
  %96 = getelementptr inbounds nuw %struct.CreateStmt, ptr %95, i32 0, i32 9
  %97 = load ptr, ptr %96, align 8
  %98 = load ptr, ptr %5, align 8
  %99 = getelementptr inbounds nuw %struct.CreateStmt, ptr %98, i32 0, i32 9
  %100 = load ptr, ptr %99, align 8
  %101 = call zeroext i1 @equal(ptr noundef %97, ptr noundef %100)
  br i1 %101, label %103, label %102

102:                                              ; preds = %94
  store i1 false, ptr %3, align 1
  br label %191

103:                                              ; preds = %94
  br label %104

104:                                              ; preds = %103
  br label %105

105:                                              ; preds = %104
  %106 = load ptr, ptr %4, align 8
  %107 = getelementptr inbounds nuw %struct.CreateStmt, ptr %106, i32 0, i32 10
  %108 = load i32, ptr %107, align 8
  %109 = load ptr, ptr %5, align 8
  %110 = getelementptr inbounds nuw %struct.CreateStmt, ptr %109, i32 0, i32 10
  %111 = load i32, ptr %110, align 8
  %112 = icmp ne i32 %108, %111
  br i1 %112, label %113, label %114

113:                                              ; preds = %105
  store i1 false, ptr %3, align 1
  br label %191

114:                                              ; preds = %105
  br label %115

115:                                              ; preds = %114
  br label %116

116:                                              ; preds = %115
  %117 = load ptr, ptr %4, align 8
  %118 = getelementptr inbounds nuw %struct.CreateStmt, ptr %117, i32 0, i32 11
  %119 = load ptr, ptr %118, align 8
  %120 = icmp ne ptr %119, null
  br i1 %120, label %121, label %135

121:                                              ; preds = %116
  %122 = load ptr, ptr %5, align 8
  %123 = getelementptr inbounds nuw %struct.CreateStmt, ptr %122, i32 0, i32 11
  %124 = load ptr, ptr %123, align 8
  %125 = icmp ne ptr %124, null
  br i1 %125, label %126, label %135

126:                                              ; preds = %121
  %127 = load ptr, ptr %4, align 8
  %128 = getelementptr inbounds nuw %struct.CreateStmt, ptr %127, i32 0, i32 11
  %129 = load ptr, ptr %128, align 8
  %130 = load ptr, ptr %5, align 8
  %131 = getelementptr inbounds nuw %struct.CreateStmt, ptr %130, i32 0, i32 11
  %132 = load ptr, ptr %131, align 8
  %133 = call i32 @strcmp(ptr noundef %129, ptr noundef %132) #8
  %134 = icmp eq i32 %133, 0
  br i1 %134, label %144, label %143

135:                                              ; preds = %121, %116
  %136 = load ptr, ptr %4, align 8
  %137 = getelementptr inbounds nuw %struct.CreateStmt, ptr %136, i32 0, i32 11
  %138 = load ptr, ptr %137, align 8
  %139 = load ptr, ptr %5, align 8
  %140 = getelementptr inbounds nuw %struct.CreateStmt, ptr %139, i32 0, i32 11
  %141 = load ptr, ptr %140, align 8
  %142 = icmp eq ptr %138, %141
  br i1 %142, label %144, label %143

143:                                              ; preds = %135, %126
  store i1 false, ptr %3, align 1
  br label %191

144:                                              ; preds = %135, %126
  br label %145

145:                                              ; preds = %144
  br label %146

146:                                              ; preds = %145
  %147 = load ptr, ptr %4, align 8
  %148 = getelementptr inbounds nuw %struct.CreateStmt, ptr %147, i32 0, i32 12
  %149 = load ptr, ptr %148, align 8
  %150 = icmp ne ptr %149, null
  br i1 %150, label %151, label %165

151:                                              ; preds = %146
  %152 = load ptr, ptr %5, align 8
  %153 = getelementptr inbounds nuw %struct.CreateStmt, ptr %152, i32 0, i32 12
  %154 = load ptr, ptr %153, align 8
  %155 = icmp ne ptr %154, null
  br i1 %155, label %156, label %165

156:                                              ; preds = %151
  %157 = load ptr, ptr %4, align 8
  %158 = getelementptr inbounds nuw %struct.CreateStmt, ptr %157, i32 0, i32 12
  %159 = load ptr, ptr %158, align 8
  %160 = load ptr, ptr %5, align 8
  %161 = getelementptr inbounds nuw %struct.CreateStmt, ptr %160, i32 0, i32 12
  %162 = load ptr, ptr %161, align 8
  %163 = call i32 @strcmp(ptr noundef %159, ptr noundef %162) #8
  %164 = icmp eq i32 %163, 0
  br i1 %164, label %174, label %173

165:                                              ; preds = %151, %146
  %166 = load ptr, ptr %4, align 8
  %167 = getelementptr inbounds nuw %struct.CreateStmt, ptr %166, i32 0, i32 12
  %168 = load ptr, ptr %167, align 8
  %169 = load ptr, ptr %5, align 8
  %170 = getelementptr inbounds nuw %struct.CreateStmt, ptr %169, i32 0, i32 12
  %171 = load ptr, ptr %170, align 8
  %172 = icmp eq ptr %168, %171
  br i1 %172, label %174, label %173

173:                                              ; preds = %165, %156
  store i1 false, ptr %3, align 1
  br label %191

174:                                              ; preds = %165, %156
  br label %175

175:                                              ; preds = %174
  br label %176

176:                                              ; preds = %175
  %177 = load ptr, ptr %4, align 8
  %178 = getelementptr inbounds nuw %struct.CreateStmt, ptr %177, i32 0, i32 13
  %179 = load i8, ptr %178, align 8, !range !4, !noundef !5
  %180 = trunc i8 %179 to i1
  %181 = zext i1 %180 to i32
  %182 = load ptr, ptr %5, align 8
  %183 = getelementptr inbounds nuw %struct.CreateStmt, ptr %182, i32 0, i32 13
  %184 = load i8, ptr %183, align 8, !range !4, !noundef !5
  %185 = trunc i8 %184 to i1
  %186 = zext i1 %185 to i32
  %187 = icmp ne i32 %181, %186
  br i1 %187, label %188, label %189

188:                                              ; preds = %176
  store i1 false, ptr %3, align 1
  br label %191

189:                                              ; preds = %176
  br label %190

190:                                              ; preds = %189
  store i1 true, ptr %3, align 1
  br label %191

191:                                              ; preds = %190, %188, %173, %143, %113, %102, %91, %80, %69, %58, %47, %36, %25, %14
  %192 = load i1, ptr %3, align 1
  ret i1 %192
}