; Function Attrs: nounwind uwtable
define internal fastcc noundef zeroext i1 @_equalCreateStmt(ptr noundef nonnull readonly captures(none) %0, ptr noundef nonnull readonly captures(none) %1) unnamed_addr #0 {
  %3 = getelementptr inbounds nuw i8, ptr %0, i64 8
  %4 = load ptr, ptr %3, align 8
  %5 = getelementptr inbounds nuw i8, ptr %1, i64 8
  %6 = load ptr, ptr %5, align 8
  %7 = tail call zeroext i1 @equal(ptr noundef %4, ptr noundef %6)
  br i1 %7, label %8, label %.thread

8:                                                ; preds = %2
  %9 = getelementptr inbounds nuw i8, ptr %0, i64 16
  %10 = load ptr, ptr %9, align 8
  %11 = getelementptr inbounds nuw i8, ptr %1, i64 16
  %12 = load ptr, ptr %11, align 8
  %13 = tail call zeroext i1 @equal(ptr noundef %10, ptr noundef %12)
  br i1 %13, label %14, label %.thread

14:                                               ; preds = %8
  %15 = getelementptr inbounds nuw i8, ptr %0, i64 24
  %16 = load ptr, ptr %15, align 8
  %17 = getelementptr inbounds nuw i8, ptr %1, i64 24
  %18 = load ptr, ptr %17, align 8
  %19 = tail call zeroext i1 @equal(ptr noundef %16, ptr noundef %18)
  br i1 %19, label %20, label %.thread

20:                                               ; preds = %14
  %21 = getelementptr inbounds nuw i8, ptr %0, i64 32
  %22 = load ptr, ptr %21, align 8
  %23 = getelementptr inbounds nuw i8, ptr %1, i64 32
  %24 = load ptr, ptr %23, align 8
  %25 = tail call zeroext i1 @equal(ptr noundef %22, ptr noundef %24)
  br i1 %25, label %26, label %.thread

26:                                               ; preds = %20
  %27 = getelementptr inbounds nuw i8, ptr %0, i64 40
  %28 = load ptr, ptr %27, align 8
  %29 = getelementptr inbounds nuw i8, ptr %1, i64 40
  %30 = load ptr, ptr %29, align 8
  %31 = tail call zeroext i1 @equal(ptr noundef %28, ptr noundef %30)
  br i1 %31, label %32, label %.thread

32:                                               ; preds = %26
  %33 = getelementptr inbounds nuw i8, ptr %0, i64 48
  %34 = load ptr, ptr %33, align 8
  %35 = getelementptr inbounds nuw i8, ptr %1, i64 48
  %36 = load ptr, ptr %35, align 8
  %37 = tail call zeroext i1 @equal(ptr noundef %34, ptr noundef %36)
  br i1 %37, label %38, label %.thread

38:                                               ; preds = %32
  %39 = getelementptr inbounds nuw i8, ptr %0, i64 56
  %40 = load ptr, ptr %39, align 8
  %41 = getelementptr inbounds nuw i8, ptr %1, i64 56
  %42 = load ptr, ptr %41, align 8
  %43 = tail call zeroext i1 @equal(ptr noundef %40, ptr noundef %42)
  br i1 %43, label %44, label %.thread

44:                                               ; preds = %38
  %45 = getelementptr inbounds nuw i8, ptr %0, i64 64
  %46 = load ptr, ptr %45, align 8
  %47 = getelementptr inbounds nuw i8, ptr %1, i64 64
  %48 = load ptr, ptr %47, align 8
  %49 = tail call zeroext i1 @equal(ptr noundef %46, ptr noundef %48)
  br i1 %49, label %50, label %.thread

50:                                               ; preds = %44
  %51 = getelementptr inbounds nuw i8, ptr %0, i64 72
  %52 = load ptr, ptr %51, align 8
  %53 = getelementptr inbounds nuw i8, ptr %1, i64 72
  %54 = load ptr, ptr %53, align 8
  %55 = tail call zeroext i1 @equal(ptr noundef %52, ptr noundef %54)
  br i1 %55, label %56, label %.thread

56:                                               ; preds = %50
  %57 = getelementptr inbounds nuw i8, ptr %0, i64 80
  %58 = load i32, ptr %57, align 8
  %59 = getelementptr inbounds nuw i8, ptr %1, i64 80
  %60 = load i32, ptr %59, align 8
  %.not = icmp eq i32 %58, %60
  br i1 %.not, label %61, label %.thread

61:                                               ; preds = %56
  %62 = getelementptr inbounds nuw i8, ptr %0, i64 88
  %63 = load ptr, ptr %62, align 8
  %.not39 = icmp eq ptr %63, null
  %.phi.trans.insert = getelementptr inbounds nuw i8, ptr %1, i64 88
  %.pre = load ptr, ptr %.phi.trans.insert, align 8
  br i1 %.not39, label %68, label %64

64:                                               ; preds = %61
  %.not40 = icmp eq ptr %.pre, null
  br i1 %.not40, label %.thread, label %65

65:                                               ; preds = %64
  %66 = tail call i32 @strcmp(ptr noundef nonnull dereferenceable(1) %63, ptr noundef nonnull dereferenceable(1) %.pre) #11
  %67 = icmp eq i32 %66, 0
  br i1 %67, label %70, label %.thread

68:                                               ; preds = %61
  %69 = icmp eq ptr %63, %.pre
  br i1 %69, label %70, label %.thread

70:                                               ; preds = %68, %65
  %71 = getelementptr inbounds nuw i8, ptr %0, i64 96
  %72 = load ptr, ptr %71, align 8
  %.not41 = icmp eq ptr %72, null
  %.phi.trans.insert45 = getelementptr inbounds nuw i8, ptr %1, i64 96
  %.pre46 = load ptr, ptr %.phi.trans.insert45, align 8
  br i1 %.not41, label %77, label %73

73:                                               ; preds = %70
  %.not42 = icmp eq ptr %.pre46, null
  br i1 %.not42, label %.thread, label %74

74:                                               ; preds = %73
  %75 = tail call i32 @strcmp(ptr noundef nonnull dereferenceable(1) %72, ptr noundef nonnull dereferenceable(1) %.pre46) #11
  %76 = icmp eq i32 %75, 0
  br i1 %76, label %79, label %.thread

77:                                               ; preds = %70
  %78 = icmp eq ptr %72, %.pre46
  br i1 %78, label %79, label %.thread

79:                                               ; preds = %77, %74
  %80 = getelementptr inbounds nuw i8, ptr %0, i64 104
  %81 = load i8, ptr %80, align 8, !range !4, !noundef !5
  %82 = getelementptr inbounds nuw i8, ptr %1, i64 104
  %83 = load i8, ptr %82, align 8, !range !4, !noundef !5
  %.not43 = icmp eq i8 %81, %83
  br label %.thread

.thread:                                          ; preds = %73, %64, %79, %74, %77, %65, %68, %56, %50, %44, %38, %32, %26, %20, %14, %8, %2
  %.0 = phi i1 [ false, %2 ], [ false, %8 ], [ false, %14 ], [ false, %20 ], [ false, %26 ], [ false, %32 ], [ false, %38 ], [ false, %44 ], [ false, %50 ], [ false, %56 ], [ false, %68 ], [ false, %65 ], [ false, %77 ], [ false, %74 ], [ %.not43, %79 ], [ false, %64 ], [ false, %73 ]
  ret i1 %.0
}